(dp0
S'cch.xml'
p1
S'und:dev00157s25'
p2
sS'acc.xml'
p3
S'und:dev00156q4z'
p4
sS'aci.xml'
p5
S'und:dev00156r0w'
p6
sS'cfw.xml'
p7
S'und:dev00157v65'
p8
sS'crb.xml'
p9
S'und:dev0015860g'
p10
sS'clb.xml'
p11
S'und:dev00158040'
p12
sS'bin.xml'
p13
S'und:dev00157c6t'
p14
sS'arc.xml'
p15
S'und:dev0015710n'
p16
sS'bva.xml'
p17
S'und:dev00157n80'
p18
sS'cha.xml'
p19
S'und:dev00157w23'
p20
sS'cnl.xml'
p21
S'und:dev00158327'
p22
sS'bas.xml'
p23
S'und:dev0015774w'
p24
sS'brs.xml'
p25
S'und:dev00157m0x'
p26
sS'bus.xml'
p27
S'und:dev00157n4m'
p28
sS'dlc.xml'
p29
S'und:dev00158q2t'
p30
sS'bow.xml'
p31
S'und:dev00157h62'
p32
sS'asm.xml'
p33
S'und:dev0015732z'
p34
sS'bno.xml'
p35
S'und:dev00157g8f'
p36
sS'cfm.xml'
p37
S'und:dev00157v2s'
p38
sS'all.xml'
p39
S'und:dev00156v8k'
p40
sS'brw.xml'
p41
S'und:dev00157m49'
p42
sS'cur.xml'
p43
S'und:dev00158b6s'
p44
sS'dut.xml'
p45
S'und:dev00158z20'
p46
sS'bpp.xml'
p47
S'und:dev00157j20'
p48
sS'dma.xml'
p49
S'und:dev00158q4h'
p50
sS'bro.xml'
p51
S'und:dev00157k8c'
p52
sS'dto.xml'
p53
S'und:dev00158x2p'
p54
sS'cfs.xml'
p55
S'und:dev00157v4g'
p56
sS'bln.xml'
p57
S'und:dev00157f6f'
p58
sS'add.xml'
p59
S'und:dev00156r8n'
p60
sS'cul.xml'
p61
S'und:dev00158b0q'
p62
sS'con_.xml'
p63
S'und:dev00158389'
p64
sS'cjm.xml'
p65
S'und:dev0015800m'
p66
sS'djg.xml'
p67
S'und:dev00158p46'
p68
sS'bak.xml'
p69
S'und:dev0015770h'
p70
sS'csw.xml'
p71
S'und:dev00158985'
p72
sS'drp.xml'
p73
S'und:dev00158w6r'
p74
sS'btz.xml'
p75
S'und:dev00157m8p'
p76
sS'dir.xml'
p77
S'und:dev00158p0t'
p78
sS'alc.xml'
p79
S'und:dev00156v46'
p80
sS'aza.xml'
p81
S'und:dev0015758n'
p82
sS'chc.xml'
p83
S'und:dev00157w4s'
p84
sS'baa.xml'
p85
S'und:dev00157606'
p86
sS'brh.xml'
p87
S'und:dev00157j82'
p88
sS'dwt.xml'
p89
S'und:dev0015902k'
p90
sS'chp.xml'
p91
S'und:dev00157x2d'
p92
sS'bcb.xml'
p93
S'und:dev0015786w'
p94
sS'daw.xml'
p95
S'und:dev00158f2b'
p96
sS'coo.xml'
p97
S'und:dev0015840v'
p98
sS'cap.xml'
p99
S'und:dev00157q2j'
p100
sS'bkc.xml'
p101
S'und:dev00157d4f'
p102
sS'che.xml'
p103
S'und:dev00157w6g'
p104
sS'ams.xml'
p105
S'und:dev00156x86'
p106
sS'crr.xml'
p107
S'und:dev0015882s'
p108
sS'afc.xml'
p109
S'und:dev00156s8z'
p110
sS'dgv.xml'
p111
S'und:dev00158m68'
p112
sS'dnh.xml'
p113
S'und:dev00158r6h'
p114
sS'bol.xml'
p115
S'und:dev00157h2p'
p116
sS'bri.xml'
p117
S'und:dev00157k0m'
p118
sS'bkb.xml'
p119
S'und:dev00157d2r'
p120
sS'asf.xml'
p121
S'und:dev00157261'
p122
sS'dpr.xml'
p123
S'und:dev00158v4r'
p124
sS'des.xml'
p125
S'und:dev00158k2k'
p126
sS'cln.xml'
p127
S'und:dev00158149'
p128
sS'asc.xml'
p129
S'und:dev0015724b'
p130
sS'asl.xml'
p131
S'und:dev00157308'
p132
sS'alb.xml'
p133
S'und:dev00156v2h'
p134
sS'aaa.xml'
p135
S'und:dev00156p08'
p136
sS'ckw.xml'
p137
S'und:dev00158029'
p138
sS'cce.xml'
p139
S'und:dev00157s0g'
p140
sS'duf.xml'
p141
S'und:dev00158x62'
p142
sS'ach.xml'
p143
S'und:dev00156q8b'
p144
sS'amr.xml'
p145
S'und:dev00156x6h'
p146
sS'afe.xml'
p147
S'und:dev00156t0h'
p148
sS'arp.xml'
p149
S'und:dev0015716q'
p150
sS'clr.xml'
p151
S'und:dev0015818p'
p152
sS'dcc.xml'
p153
S'und:dev00158g61'
p154
sS'dam.xml'
p155
S'und:dev00158d4q'
p156
sS'dod.xml'
p157
S'und:dev00158s6t'
p158
sS'dun.xml'
p159
S'und:dev00158x8r'
p160
sS'bae.xml'
p161
S'und:dev00157668'
p162
sS'csm.xml'
p163
S'und:dev0015894s'
p164
sS'bac.xml'
p165
S'und:dev0015762w'
p166
sS'adc.xml'
p167
S'und:dev00156r6z'
p168
sS'der.xml'
p169
S'und:dev00158k0w'
p170
sS'apc.xml'
p171
S'und:dev00157021'
p172
sS'acs.xml'
p173
S'und:dev00156r48'
p174
sS'dis.xml'
p175
S'und:dev00158p2h'
p176
sS'bdk.xml'
p177
S'und:dev0015792t'
p178
sS'art.xml'
p179
S'und:dev0015718d'
p180
sS'brl.xml'
p181
S'und:dev00157k40'
p182
sS'die.xml'
p183
S'und:dev00158n4w'
p184
sS'dpv.xml'
p185
S'und:dev00158v6f'
p186
sS'arw.xml'
p187
S'und:dev0015720z'
p188
sS'cfx.xml'
p189
S'und:dev00157v8v'
p190
sS'avp.xml'
p191
S'und:dev00157548'
p192
sS'dbs.xml'
p193
S'und:dev00158g4b'
p194
sS'dil.xml'
p195
S'und:dev00158n6k'
p196
sS'ddo.xml'
p197
S'und:dev00158j28'
p198
sS'bag.xml'
p199
S'und:dev0015768z'
p200
sS'are.xml'
p201
S'und:dev0015712b'
p202
sS'csq.xml'
p203
S'und:dev0015896g'
p204
sS'dbk.xml'
p205
S'und:dev00158f6q'
p206
sS'ant.xml'
p207
S'und:dev00156z44'
p208
sS'dna.xml'
p209
S'und:dev00158r24'
p210
sS'cre.xml'
p211
S'und:dev0015866j'
p212
sS'cnd.xml'
p213
S'und:dev0015830j'
p214
sS'dhw.xml'
p215
S'und:dev00158n26'
p216
sS'dbl.xml'
p217
S'und:dev00158f8d'
p218
sS'cjf.xml'
p219
S'und:dev00157z63'
p220
sS'dbr.xml'
p221
S'und:dev00158g2n'
p222
sS'dwh.xml'
p223
S'und:dev0015900w'
p224
sS'car.xml'
p225
S'und:dev00157q47'
p226
sS'aar.xml'
p227
S'und:dev00156p4n'
p228
sS'deo.xml'
p229
S'und:dev00158j8b'
p230
sS'blt.xml'
p231
S'und:dev00157g0p'
p232
sS'afo.xml'
p233
S'und:dev00156t26'
p234
sS'bbm.xml'
p235
S'und:dev0015780t'
p236
sS'aud.xml'
p237
S'und:dev00157428'
p238
sS'cly.xml'
p239
S'und:dev0015822x'
p240
sS'dfw.xml'
p241
S'und:dev00158m06'
p242
sS'dav.xml'
p243
S'und:dev00158f0n'
p244
sS'dpy.xml'
p245
S'und:dev00158v84'
p246
sS'amm.xml'
p247
S'und:dev00156x4t'
p248
sS'djo.xml'
p249
S'und:dev00158p6w'
p250
sS'aad.xml'
p251
S'und:dev00156p2z'
p252
sS'coy.xml'
p253
S'und:dev00158447'
p254
sS'csh.xml'
p255
S'und:dev0015890d'
p256
sS'crl.xml'
p257
S'und:dev00158745'
p258
sS'dht.xml'
p259
S'und:dev00158n0h'
p260
sS'dct.xml'
p261
S'und:dev00158h4n'
p262
sS'box.xml'
p263
S'und:dev00157h8r'
p264
sS'clc.xml'
p265
S'und:dev0015806p'
p266
sS'brk.xml'
p267
S'und:dev00157k29'
p268
sS'del.xml'
p269
S'und:dev00158j4z'
p270
sS'dga.xml'
p271
S'und:dev00158m4k'
p272
sS'cij.xml'
p273
S'und:dev00157x6s'
p274
sS'brn.xml'
p275
S'und:dev00157k6p'
p276
sS'bur.xml'
p277
S'und:dev00157n2x'
p278
sS'dwe.xml'
p279
S'und:dev00158z82'
p280
sS'dab.xml'
p281
S'und:dev00158c63'
p282
sS'avl.xml'
p283
S'und:dev0015750w'
p284
sS'cpc.xml'
p285
S'und:dev0015848m'
p286
sS'bmh.xml'
p287
S'und:dev00157g2c'
p288
sS'crk.xml'
p289
S'und:dev0015872g'
p290
sS'cyc.xml'
p291
S'und:dev00158c4d'
p292
sS'bue.xml'
p293
S'und:dev00157n07'
p294
sS'arm.xml'
p295
S'und:dev00157141'
p296
sS'cpl.xml'
p297
S'und:dev0015854j'
p298
sS'dpe.xml'
p299
S'und:dev00158t8t'
p300
sS'dbm.xml'
p301
S'und:dev00158g0z'
p302
sS'dar.xml'
p303
S'und:dev00158d6d'
p304
sS'dpa.xml'
p305
S'und:dev00158t64'
p306
sS'det.xml'
p307
S'und:dev00158k48'
p308
sS'bei.xml'
p309
S'und:dev00157966'
p310
sS'caa.xml'
p311
S'und:dev00157p6m'
p312
sS'cle.xml'
p313
S'und:dev0015810x'
p314
sS'blc.xml'
p315
S'und:dev00157f0c'
p316
sS'cex.xml'
p317
S'und:dev00157v03'
p318
sS'dio.xml'
p319
S'und:dev00158n88'
p320
sS'bel.xml'
p321
S'und:dev0015798w'
p322
sS'aup.xml'
p323
S'und:dev0015744z'
p324
sS'dmh.xml'
p325
S'und:dev00158q66'
p326
sS'dol.xml'
p327
S'und:dev00158t02'
p328
sS'dkc.xml'
p329
S'und:dev00158q04'
p330
sS'dmu.xml'
p331
S'und:dev00158r0f'
p332
sS'brt.xml'
p333
S'und:dev00157m2m'
p334
sS'ccw.xml'
p335
S'und:dev00157t0s'
p336
sS'ave.xml'
p337
S'und:dev0015746n'
p338
sS'cis.xml'
p339
S'und:dev00157z01'
p340
sS'chn.xml'
p341
S'und:dev00157w85'
p342
sS'cro.xml'
p343
S'und:dev0015878j'
p344
sS'cri.xml'
p345
S'und:dev0015870s'
p346
sS'aph.xml'
p347
S'und:dev0015704q'
p348
sS'dqu.xml'
p349
S'und:dev00158w0p'
p350
sS'bhb.xml'
p351
S'und:dev00157c2f'
p352
sS'apl.xml'
p353
S'und:dev0015706d'
p354
sS'bnt.xml'
p355
S'und:dev00157h00'
p356
sS'dss.xml'
p357
S'und:dev00158w8f'
p358
sS'dpl.xml'
p359
S'und:dev00158v22'
p360
sS'cun.xml'
p361
S'und:dev00158b43'
p362
sS'cen.xml'
p363
S'und:dev00157t8j'
p364
sS'cjj.xml'
p365
S'und:dev00157z8s'
p366
sS'bcc.xml'
p367
S'und:dev0015788k'
p368
sS'bnm.xml'
p369
S'und:dev00157g6r'
p370
sS'cav.xml'
p371
S'und:dev00157q8m'
p372
sS'dfy.xml'
p373
S'und:dev00158m2w'
p374
sS'cba.xml'
p375
S'und:dev00157r05'
p376
sS'dns.xml'
p377
S'und:dev00158r86'
p378
sS'bre.xml'
p379
S'und:dev00157j4p'
p380
sS'asp.xml'
p381
S'und:dev0015734n'
p382
sS'cal.xml'
p383
S'und:dev00157q0v'
p384
sS'dri.xml'
p385
S'und:dev00158w42'
p386
sS'doa.xml'
p387
S'und:dev00158s2f'
p388
sS'amk.xml'
p389
S'und:dev00156x0f'
p390
sS'ado.xml'
p391
S'und:dev00156s06'
p392
sS'crm.xml'
p393
S'und:dev0015876v'
p394
sS'any.xml'
p395
S'und:dev00156z6t'
p396
sS'csi.xml'
p397
S'und:dev00158923'
p398
sS'chr.xml'
p399
S'und:dev00157x43'
p400
sS'dae.xml'
p401
S'und:dev00158c8s'
p402
sS'blg.xml'
p403
S'und:dev00157f4r'
p404
sS'bby.xml'
p405
S'und:dev00157846'
p406
sS'byr.xml'
p407
S'und:dev00157p27'
p408
sS'cum.xml'
p409
S'und:dev00158b2d'
p410
sS'cpa.xml'
p411
S'und:dev0015846x'
p412
sS'cbm.xml'
p413
S'und:dev00157r4j'
p414
sS'bet.xml'
p415
S'und:dev00157b24'
p416
sS'apw.xml'
p417
S'und:dev00157083'
p418
sS'cct.xml'
p419
S'und:dev00157s6j'
p420
sS'adu.xml'
p421
S'und:dev00156s68'
p422
sS'ccl.xml'
p423
S'und:dev00157s4v'
p424
sS'cld.xml'
p425
S'und:dev0015808c'
p426
sS'cwl.xml'
p427
S'und:dev00158c2q'
p428
sS'bos.xml'
p429
S'und:dev00157h4c'
p430
sS'dhp.xml'
p431
S'und:dev00158m8z'
p432
sS'dob.xml'
p433
S'und:dev00158s44'
p434
sS'bbr.xml'
p435
S'und:dev0015782h'
p436
sS'asw.xml'
p437
S'und:dev0015736b'
p438
sS'dal.xml'
p439
S'und:dev00158d21'
p440
sS'asa.xml'
p441
S'und:dev0015722n'
p442
sS'dvl.xml'
p443
S'und:dev00158z6c'
p444
sS'ccv.xml'
p445
S'und:dev00157s87'
p446
sS'djt.xml'
p447
S'und:dev00158p8k'
p448
sS'clw.xml'
p449
S'und:dev00158207'
p450
sS'alg.xml'
p451
S'und:dev00156v6w'
p452
sS'abo.xml'
p453
S'und:dev00156q0k'
p454
sS'aml.xml'
p455
S'und:dev00156x24'
p456
sS'dag.xml'
p457
S'und:dev00158d0b'
p458
sS'dcl.xml'
p459
S'und:dev00158h2z'
p460
sS'avm.xml'
p461
S'und:dev0015752k'
p462
sS'clo.xml'
p463
S'und:dev00158160'
p464
sS'bvp.xml'
p465
S'und:dev00157p0j'
p466
sS'dch.xml'
p467
S'und:dev00158h08'
p468
sS'cry.xml'
p469
S'und:dev00158865'
p470
sS'aom.xml'
p471
S'und:dev0015700b'
p472
sS'cir.xml'
p473
S'und:dev00157x8g'
p474
sS'bar.xml'
p475
S'und:dev00157726'
p476
sS'cra.xml'
p477
S'und:dev0015858x'
p478
sS'coc.xml'
p479
S'und:dev0015834x'
p480
sS'ahc.xml'
p481
S'und:dev00156t6k'
p482
sS'cog.xml'
p483
S'und:dev0015836m'
p484
sS'cpr.xml'
p485
S'und:dev00158567'
p486
sS'ajq.xml'
p487
S'und:dev00156v0t'
p488
sS'and.xml'
p489
S'und:dev00156z0r'
p490
sS'bch.xml'
p491
S'und:dev00157904'
p492
sS'bjs.xml'
p493
S'und:dev00157d02'
p494
sS'cor.xml'
p495
S'und:dev0015842j'
p496
sS'crp.xml'
p497
S'und:dev00158803'
p498
sS'bgs.xml'
p499
S'und:dev00157c0r'
p500
sS'dcy.xml'
p501
S'und:dev00158h81'
p502
sS'cll.xml'
p503
S'und:dev0015812m'
p504
sS'civ.xml'
p505
S'und:dev00157z2q'
p506
sS'ano.xml'
p507
S'und:dev00156z2f'
p508
sS'bad.xml'
p509
S'und:dev0015764k'
p510
sS'cad.xml'
p511
S'und:dev00157p89'
p512
sS'csc.xml'
p513
S'und:dev0015888v'
p514
sS'drd.xml'
p515
S'und:dev00158w2c'
p516
sS'avx.xml'
p517
S'und:dev0015756z'
p518
sS'dml.xml'
p519
S'und:dev00158q8w'
p520
sS'aba.xml'
p521
S'und:dev00156p6b'
p522
sS'brg.xml'
p523
S'und:dev00157j6c'
p524
sS'bhn.xml'
p525
S'und:dev00157c44'
p526
sS'asi.xml'
p527
S'und:dev0015728q'
p528
sS'doo.xml'
p529
S'und:dev00158t4f'
p530
sS'ben.xml'
p531
S'und:dev00157b0f'
p532
sS'dtz.xml'
p533
S'und:dev00158x4c'
p534
sS'dcg.xml'
p535
S'und:dev00158g8q'
p536
sS'bfc.xml'
p537
S'und:dev00157b6h'
p538
sS'bay.xml'
p539
S'und:dev00157788'
p540
sS'dur.xml'
p541
S'und:dev00158z09'
p542
sS'cpe.xml'
p543
S'und:dev00158505'
p544
sS'alm.xml'
p545
S'und:dev00156w04'
p546
sS'crd.xml'
p547
S'und:dev0015864v'
p548
sS'doh.xml'
p549
S'und:dev00158s8h'
p550
sS'bed.xml'
p551
S'und:dev0015794h'
p552
sS'bts.xml'
p553
S'und:dev00157m60'
p554
sS'avi.xml'
p555
S'und:dev0015748b'
p556
sS'abs.xml'
p557
S'und:dev00156q28'
p558
sS'bld.xml'
p559
S'und:dev00157f22'
p560
sS'cee.xml'
p561
S'und:dev00157t45'
p562
sS'dev.xml'
p563
S'und:dev00158k6z'
p564
sS'cvr.xml'
p565
S'und:dev00158c01'
p566
sS'dvd.xml'
p567
S'und:dev00158z4p'
p568
sS'adr.xml'
p569
S'und:dev00156s2w'
p570
sS'cec.xml'
p571
S'und:dev00157t2g'
p572
sS'cpf.xml'
p573
S'und:dev0015852v'
p574
sS'cgh.xml'
p575
S'und:dev00157w0d'
p576
sS'crv.xml'
p577
S'und:dev0015884g'
p578
sS'blq.xml'
p579
S'und:dev00157f84'
p580
sS'dda.xml'
p581
S'und:dev00158j0k'
p582
sS'bph.xml'
p583
S'und:dev00157j09'
p584
sS'ami.xml'
p585
S'und:dev00156w8w'
p586
sS'dbf.xml'
p587
S'und:dev00158f41'
p588
sS'ccc.xml'
p589
S'und:dev00157r8x'
p590
sS'bkp.xml'
p591
S'und:dev00157d64'
p592
sS'bfa.xml'
p593
S'und:dev00157b4t'
p594
sS'crc.xml'
p595
S'und:dev00158625'
p596
sS'dnc.xml'
p597
S'und:dev00158r4t'
p598
sS'cjc.xml'
p599
S'und:dev00157z4d'
p600
sS'bnd.xml'
p601
S'und:dev00157g42'
p602
sS'ais.xml'
p603
S'und:dev00156t88'
p604
sS'bkw.xml'
p605
S'und:dev00157d8t'
p606
sS'cmn.xml'
p607
S'und:dev00158280'
p608
sS'dcv.xml'
p609
S'und:dev00158h6b'
p610
sS'bfm.xml'
p611
S'und:dev00157b86'
p612
sS'cho.xml'
p613
S'und:dev00157x0q'
p614
sS'alp.xml'
p615
S'und:dev00156w4h'
p616
sS'abm.xml'
p617
S'und:dev00156p81'
p618
sS'crf.xml'
p619
S'und:dev00158687'
p620
sS'dph.xml'
p621
S'und:dev00158v0c'
p622
sS'ama.xml'
p623
S'und:dev00156w66'
p624
sS'cbr.xml'
p625
S'und:dev00157r67'
p626
sS'ads.xml'
p627
S'und:dev00156s4k'
p628
sS'atm.xml'
p629
S'und:dev0015740k'
p630
sS'cem.xml'
p631
S'und:dev00157t6v'
p632
sS'dat.xml'
p633
S'und:dev00158d83'
p634
sS'cmm.xml'
p635
S'und:dev00158269'
p636
sS'cau.xml'
p637
S'und:dev00157q6x'
p638
sS'bau.xml'
p639
S'und:dev0015776k'
p640
sS'c26.xml'
p641
S'und:dev00157p4x'
p642
sS'acp.xml'
p643
S'und:dev00156r2k'
p644
sS'but.xml'
p645
S'und:dev00157n69'
p646
sS'cbc.xml'
p647
S'und:dev00157r2v'
p648
sS'cvf.xml'
p649
S'und:dev00158b8g'
p650
sS'dom.xml'
p651
S'und:dev00158t2r'
p652
sS'den.xml'
p653
S'und:dev00158j6n'
p654
sS'cmc.xml'
p655
S'und:dev0015824m'
p656
sS'ath.xml'
p657
S'und:dev00157381'
p658
sS'bit.xml'
p659
S'und:dev00157c8h'
p660
sS'dft.xml'
p661
S'und:dev00158k8n'
p662
sS'aln.xml'
p663
S'und:dev00156w2t'
p664
sS'aoh.xml'
p665
S'und:dev00156z8h'
p666
sS'afr.xml'
p667
S'und:dev00156t4w'
p668
sS'dth.xml'
p669
S'und:dev00158x00'
p670
sS'dnt.xml'
p671
S'und:dev00158s0r'
p672
sS'ace.xml'
p673
S'und:dev00156q6n'
p674
s.